target datalayout = "e-m:e-p270:32:32-p271:32:32-p272:64:64-i64:64-i128:128-f80:128-n8:16:32:64-S128"
target triple = "x86_64-pc-linux-gnu"

%class.btVector3 = type { [4 x float] }
%class.btPersistentManifold = type { %struct.btTypedObject, [4 x i8], [4 x %class.btManifoldPoint], ptr, ptr, i32, float, float, i32, i32, i32 }
%struct.btTypedObject = type { i32 }
%class.btManifoldPoint = type <{ %class.btVector3, %class.btVector3, %class.btVector3, %class.btVector3, %class.btVector3, float, float, float, float, float, i32, i32, i32, i32, [4 x i8], ptr, i32, float, float, float, float, float, float, %union.anon.2, %union.anon.3, float, i32, %class.btVector3, %class.btVector3, [4 x i8] }>
%union.anon.2 = type { float }
%union.anon.3 = type { float }

@gContactEndedCallback = external global ptr, align 8

; Function Attrs: inlinehint mustprogress uwtable
define linkonce_odr dso_local void @_ZN20btPersistentManifold13clearManifoldEv(ptr noundef nonnull align 8 dereferenceable(880) %0) #8 comdat align 2 {
  %2 = alloca ptr, align 8
  %3 = alloca i32, align 4
  %4 = alloca ptr, align 8
  store ptr %0, ptr %2, align 8, !tbaa !61
  %5 = load ptr, ptr %2, align 8
  call void @llvm.lifetime.start.p0(i64 4, ptr %3) #11
  store i32 0, ptr %3, align 4, !tbaa !9
  br label %6

6:                                                ; preds = %16, %1
  %7 = load i32, ptr %3, align 4, !tbaa !9
  %8 = getelementptr inbounds nuw %class.btPersistentManifold, ptr %5, i32 0, i32 5
  %9 = load i32, ptr %8, align 8, !tbaa !87
  %10 = icmp slt i32 %7, %9
  br i1 %10, label %11, label %19

11:                                               ; preds = %6
  %12 = getelementptr inbounds nuw %class.btPersistentManifold, ptr %5, i32 0, i32 2
  %13 = load i32, ptr %3, align 4, !tbaa !9
  %14 = sext i32 %13 to i64
  %15 = getelementptr inbounds [4 x %class.btManifoldPoint], ptr %12, i64 0, i64 %14
  call void @_ZN20btPersistentManifold14clearUserCacheER15btManifoldPoint(ptr noundef nonnull align 8 dereferenceable(880) %5, ptr noundef nonnull align 8 dereferenceable(204) %15)
  br label %16

16:                                               ; preds = %11
  %17 = load i32, ptr %3, align 4, !tbaa !9
  %18 = add nsw i32 %17, 1
  store i32 %18, ptr %3, align 4, !tbaa !9
  br label %6, !llvm.loop !95

19:                                               ; preds = %6
  %20 = load ptr, ptr @gContactEndedCallback, align 8, !tbaa !38
  %21 = icmp ne ptr %20, null
  br i1 %21, label %22, label %28

22:                                               ; preds = %19
  %23 = getelementptr inbounds nuw %class.btPersistentManifold, ptr %5, i32 0, i32 5
  %24 = load i32, ptr %23, align 8, !tbaa !87
  %25 = icmp ne i32 %24, 0
  br i1 %25, label %26, label %28

26:                                               ; preds = %22
  %27 = load ptr, ptr @gContactEndedCallback, align 8, !tbaa !38
  call void @llvm.lifetime.start.p0(i64 8, ptr %4) #11
  store ptr %5, ptr %4, align 8, !tbaa !61
  call void %27(ptr noundef nonnull align 8 dereferenceable(8) %4)
  call void @llvm.lifetime.end.p0(i64 8, ptr %4) #11
  br label %28

28:                                               ; preds = %26, %22, %19
  %29 = getelementptr inbounds nuw %class.btPersistentManifold, ptr %5, i32 0, i32 5
  store i32 0, ptr %29, align 8, !tbaa !87
  call void @llvm.lifetime.end.p0(i64 4, ptr %3) #11
  ret void
}

; Function Attrs: mustprogress uwtable
define dso_local void @_ZN21btCollisionDispatcher13clearManifoldEP20btPersistentManifold(ptr noundef nonnull align 8 dereferenceable(20816) %0, ptr noundef %1) unnamed_addr #2 align 2 {
  %3 = alloca ptr, align 8
  %4 = alloca ptr, align 8
  store ptr %0, ptr %3, align 8, !tbaa !12
  store ptr %1, ptr %4, align 8, !tbaa !61
  %5 = load ptr, ptr %4, align 8, !tbaa !61
  call void @_ZN20btPersistentManifold13clearManifoldEv(ptr noundef nonnull align 8 dereferenceable(880) %5)
  ret void
}