; Function Attrs: mustprogress uwtable
define dso_local void @_ZN21btCollisionDispatcher13clearManifoldEP20btPersistentManifold(ptr nonnull readnone align 8 captures(none) %0, ptr noundef %1) unnamed_addr #0 align 2 {
  %3 = alloca ptr, align 8
  %4 = getelementptr inbounds nuw i8, ptr %1, i64 856
  %5 = load i32, ptr %4, align 8, !tbaa !80
  %6 = icmp sgt i32 %5, 0
  br i1 %6, label %.lr.ph.i, label %._crit_edge.i

.lr.ph.i:                                         ; preds = %2
  %7 = getelementptr inbounds nuw i8, ptr %1, i64 8
  br label %8

8:                                                ; preds = %8, %.lr.ph.i
  %indvars.iv.i = phi i64 [ 0, %.lr.ph.i ], [ %indvars.iv.next.i, %8 ]
  %9 = getelementptr inbounds nuw [4 x %class.btManifoldPoint], ptr %7, i64 0, i64 %indvars.iv.i
  tail call void @_ZN20btPersistentManifold14clearUserCacheER15btManifoldPoint(ptr noundef nonnull align 8 dereferenceable(880) %1, ptr noundef nonnull align 8 dereferenceable(204) %9)
  %indvars.iv.next.i = add nuw nsw i64 %indvars.iv.i, 1
  %10 = load i32, ptr %4, align 8, !tbaa !80
  %11 = sext i32 %10 to i64
  %12 = icmp slt i64 %indvars.iv.next.i, %11
  br i1 %12, label %8, label %._crit_edge.i, !llvm.loop !89

._crit_edge.i:                                    ; preds = %8, %2
  %.lcssa.i = phi i32 [ %5, %2 ], [ %10, %8 ]
  %13 = load ptr, ptr @gContactEndedCallback, align 8, !tbaa !73
  %.not.i = icmp eq ptr %13, null
  %.not5.i = icmp eq i32 %.lcssa.i, 0
  %or.cond.i = or i1 %.not5.i, %.not.i
  br i1 %or.cond.i, label %_ZN20btPersistentManifold13clearManifoldEv.exit, label %14

14:                                               ; preds = %._crit_edge.i
  call void @llvm.lifetime.start.p0(i64 8, ptr nonnull %3) #11
  store ptr %1, ptr %3, align 8, !tbaa !86
  call void %13(ptr noundef nonnull align 8 dereferenceable(8) %3)
  call void @llvm.lifetime.end.p0(i64 8, ptr nonnull %3) #11
  br label %_ZN20btPersistentManifold13clearManifoldEv.exit

_ZN20btPersistentManifold13clearManifoldEv.exit:  ; preds = %._crit_edge.i, %14
  store i32 0, ptr %4, align 8, !tbaa !80
  ret void
}